target datalayout = "e-m:e-p270:32:32-p271:32:32-p272:64:64-i64:64-i128:128-f80:128-n8:16:32:64-S128"
target triple = "x86_64-pc-linux-gnu"

%struct.opcode_metadata = type { i8, i8, i16 }
%struct._Py_SourceLocation = type { i32, i32, i32, i32 }
%struct._PyJumpTargetLabel = type { i32 }
%struct._PyCfgBasicblock = type { ptr, %struct._PyJumpTargetLabel, ptr, ptr, ptr, i32, i32, i64, i32, i32, i8 }
%struct._PyCfgInstruction = type { i32, i32, %struct._Py_SourceLocation, ptr, ptr }

@_PyOpcode_opcode_metadata = external constant [266 x %struct.opcode_metadata], align 16

; Function Attrs: nounwind uwtable
define internal i32 @get_max_label(ptr noundef %0) #0 {
  %2 = alloca ptr, align 8
  %3 = alloca i32, align 4
  %4 = alloca ptr, align 8
  store ptr %0, ptr %2, align 8, !tbaa !14
  call void @llvm.lifetime.start.p0(i64 4, ptr %3) #7
  store i32 -1, ptr %3, align 4, !tbaa !19
  call void @llvm.lifetime.start.p0(i64 8, ptr %4) #7
  %5 = load ptr, ptr %2, align 8, !tbaa !14
  store ptr %5, ptr %4, align 8, !tbaa !14
  br label %6

6:                                                ; preds = %23, %1
  %7 = load ptr, ptr %4, align 8, !tbaa !14
  %8 = icmp ne ptr %7, null
  br i1 %8, label %10, label %9

9:                                                ; preds = %6
  call void @llvm.lifetime.end.p0(i64 8, ptr %4) #7
  br label %27

10:                                               ; preds = %6
  %11 = load ptr, ptr %4, align 8, !tbaa !14
  %12 = getelementptr inbounds nuw %struct._PyCfgBasicblock, ptr %11, i32 0, i32 1
  %13 = getelementptr inbounds nuw %struct._PyJumpTargetLabel, ptr %12, i32 0, i32 0
  %14 = load i32, ptr %13, align 8, !tbaa !41
  %15 = load i32, ptr %3, align 4, !tbaa !19
  %16 = icmp sgt i32 %14, %15
  br i1 %16, label %17, label %22

17:                                               ; preds = %10
  %18 = load ptr, ptr %4, align 8, !tbaa !14
  %19 = getelementptr inbounds nuw %struct._PyCfgBasicblock, ptr %18, i32 0, i32 1
  %20 = getelementptr inbounds nuw %struct._PyJumpTargetLabel, ptr %19, i32 0, i32 0
  %21 = load i32, ptr %20, align 8, !tbaa !41
  store i32 %21, ptr %3, align 4, !tbaa !19
  br label %22

22:                                               ; preds = %17, %10
  br label %23

23:                                               ; preds = %22
  %24 = load ptr, ptr %4, align 8, !tbaa !14
  %25 = getelementptr inbounds nuw %struct._PyCfgBasicblock, ptr %24, i32 0, i32 4
  %26 = load ptr, ptr %25, align 8, !tbaa !42
  store ptr %26, ptr %4, align 8, !tbaa !14
  br label %6, !llvm.loop !129

27:                                               ; preds = %9
  %28 = load i32, ptr %3, align 4, !tbaa !19
  call void @llvm.lifetime.end.p0(i64 4, ptr %3) #7
  ret i32 %28
}

; Function Attrs: nounwind uwtable
define internal i32 @translate_jump_labels_to_targets(ptr noundef %0) #0 {
  %2 = alloca i32, align 4
  %3 = alloca ptr, align 8
  %4 = alloca i32, align 4
  %5 = alloca i64, align 8
  %6 = alloca ptr, align 8
  %7 = alloca i32, align 4
  %8 = alloca ptr, align 8
  %9 = alloca ptr, align 8
  %10 = alloca i32, align 4
  %11 = alloca ptr, align 8
  %12 = alloca i32, align 4
  store ptr %0, ptr %3, align 8, !tbaa !14
  call void @llvm.lifetime.start.p0(i64 4, ptr %4) #7
  %13 = load ptr, ptr %3, align 8, !tbaa !14
  %14 = call i32 @get_max_label(ptr noundef %13)
  store i32 %14, ptr %4, align 4, !tbaa !19
  call void @llvm.lifetime.start.p0(i64 8, ptr %5) #7
  %15 = load i32, ptr %4, align 4, !tbaa !19
  %16 = add i32 %15, 1
  %17 = sext i32 %16 to i64
  %18 = mul i64 8, %17
  store i64 %18, ptr %5, align 8, !tbaa !38
  call void @llvm.lifetime.start.p0(i64 8, ptr %6) #7
  %19 = load i64, ptr %5, align 8, !tbaa !38
  %20 = call ptr @PyMem_Malloc(i64 noundef %19)
  store ptr %20, ptr %6, align 8, !tbaa !39
  %21 = load ptr, ptr %6, align 8, !tbaa !39
  %22 = icmp ne ptr %21, null
  br i1 %22, label %25, label %23

23:                                               ; preds = %1
  %24 = call ptr @PyErr_NoMemory()
  store i32 -1, ptr %2, align 4
  store i32 1, ptr %7, align 4
  br label %121

25:                                               ; preds = %1
  %26 = load ptr, ptr %6, align 8, !tbaa !39
  %27 = load i64, ptr %5, align 8, !tbaa !38
  call void @llvm.memset.p0.i64(ptr align 8 %26, i8 0, i64 %27, i1 false)
  call void @llvm.lifetime.start.p0(i64 8, ptr %8) #7
  %28 = load ptr, ptr %3, align 8, !tbaa !14
  store ptr %28, ptr %8, align 8, !tbaa !14
  br label %29

29:                                               ; preds = %49, %25
  %30 = load ptr, ptr %8, align 8, !tbaa !14
  %31 = icmp ne ptr %30, null
  br i1 %31, label %33, label %32

32:                                               ; preds = %29
  store i32 2, ptr %7, align 4
  call void @llvm.lifetime.end.p0(i64 8, ptr %8) #7
  br label %53

33:                                               ; preds = %29
  %34 = load ptr, ptr %8, align 8, !tbaa !14
  %35 = getelementptr inbounds nuw %struct._PyCfgBasicblock, ptr %34, i32 0, i32 1
  %36 = getelementptr inbounds nuw %struct._PyJumpTargetLabel, ptr %35, i32 0, i32 0
  %37 = load i32, ptr %36, align 8, !tbaa !41
  %38 = icmp sge i32 %37, 0
  br i1 %38, label %39, label %48

39:                                               ; preds = %33
  %40 = load ptr, ptr %8, align 8, !tbaa !14
  %41 = load ptr, ptr %6, align 8, !tbaa !39
  %42 = load ptr, ptr %8, align 8, !tbaa !14
  %43 = getelementptr inbounds nuw %struct._PyCfgBasicblock, ptr %42, i32 0, i32 1
  %44 = getelementptr inbounds nuw %struct._PyJumpTargetLabel, ptr %43, i32 0, i32 0
  %45 = load i32, ptr %44, align 8, !tbaa !41
  %46 = sext i32 %45 to i64
  %47 = getelementptr ptr, ptr %41, i64 %46
  store ptr %40, ptr %47, align 8, !tbaa !14
  br label %48

48:                                               ; preds = %39, %33
  br label %49

49:                                               ; preds = %48
  %50 = load ptr, ptr %8, align 8, !tbaa !14
  %51 = getelementptr inbounds nuw %struct._PyCfgBasicblock, ptr %50, i32 0, i32 4
  %52 = load ptr, ptr %51, align 8, !tbaa !42
  store ptr %52, ptr %8, align 8, !tbaa !14
  br label %29, !llvm.loop !43

53:                                               ; preds = %32
  call void @llvm.lifetime.start.p0(i64 8, ptr %9) #7
  %54 = load ptr, ptr %3, align 8, !tbaa !14
  store ptr %54, ptr %9, align 8, !tbaa !14
  br label %55

55:                                               ; preds = %115, %53
  %56 = load ptr, ptr %9, align 8, !tbaa !14
  %57 = icmp ne ptr %56, null
  br i1 %57, label %59, label %58

58:                                               ; preds = %55
  store i32 5, ptr %7, align 4
  call void @llvm.lifetime.end.p0(i64 8, ptr %9) #7
  br label %119

59:                                               ; preds = %55
  call void @llvm.lifetime.start.p0(i64 4, ptr %10) #7
  store i32 0, ptr %10, align 4, !tbaa !19
  br label %60

60:                                               ; preds = %111, %59
  %61 = load i32, ptr %10, align 4, !tbaa !19
  %62 = load ptr, ptr %9, align 8, !tbaa !14
  %63 = getelementptr inbounds nuw %struct._PyCfgBasicblock, ptr %62, i32 0, i32 5
  %64 = load i32, ptr %63, align 8, !tbaa !44
  %65 = icmp slt i32 %61, %64
  br i1 %65, label %67, label %66

66:                                               ; preds = %60
  store i32 8, ptr %7, align 4
  call void @llvm.lifetime.end.p0(i64 4, ptr %10) #7
  br label %114

67:                                               ; preds = %60
  call void @llvm.lifetime.start.p0(i64 8, ptr %11) #7
  %68 = load ptr, ptr %9, align 8, !tbaa !14
  %69 = getelementptr inbounds nuw %struct._PyCfgBasicblock, ptr %68, i32 0, i32 3
  %70 = load ptr, ptr %69, align 8, !tbaa !20
  %71 = load i32, ptr %10, align 4, !tbaa !19
  %72 = sext i32 %71 to i64
  %73 = getelementptr %struct._PyCfgInstruction, ptr %70, i64 %72
  store ptr %73, ptr %11, align 8, !tbaa !29
  %74 = load ptr, ptr %11, align 8, !tbaa !29
  %75 = getelementptr inbounds nuw %struct._PyCfgInstruction, ptr %74, i32 0, i32 0
  %76 = load i32, ptr %75, align 8, !tbaa !30
  %77 = sext i32 %76 to i64
  %78 = getelementptr [266 x %struct.opcode_metadata], ptr @_PyOpcode_opcode_metadata, i64 0, i64 %77
  %79 = getelementptr inbounds nuw %struct.opcode_metadata, ptr %78, i32 0, i32 2
  %80 = load i16, ptr %79, align 2, !tbaa !45
  %81 = zext i16 %80 to i32
  %82 = and i32 %81, 8
  %83 = icmp ne i32 %82, 0
  br i1 %83, label %99, label %84

84:                                               ; preds = %67
  %85 = load ptr, ptr %11, align 8, !tbaa !29
  %86 = getelementptr inbounds nuw %struct._PyCfgInstruction, ptr %85, i32 0, i32 0
  %87 = load i32, ptr %86, align 8, !tbaa !30
  %88 = icmp eq i32 %87, 263
  br i1 %88, label %99, label %89

89:                                               ; preds = %84
  %90 = load ptr, ptr %11, align 8, !tbaa !29
  %91 = getelementptr inbounds nuw %struct._PyCfgInstruction, ptr %90, i32 0, i32 0
  %92 = load i32, ptr %91, align 8, !tbaa !30
  %93 = icmp eq i32 %92, 264
  br i1 %93, label %99, label %94

94:                                               ; preds = %89
  %95 = load ptr, ptr %11, align 8, !tbaa !29
  %96 = getelementptr inbounds nuw %struct._PyCfgInstruction, ptr %95, i32 0, i32 0
  %97 = load i32, ptr %96, align 8, !tbaa !30
  %98 = icmp eq i32 %97, 262
  br i1 %98, label %99, label %110

99:                                               ; preds = %94, %89, %84, %67
  call void @llvm.lifetime.start.p0(i64 4, ptr %12) #7
  %100 = load ptr, ptr %11, align 8, !tbaa !29
  %101 = getelementptr inbounds nuw %struct._PyCfgInstruction, ptr %100, i32 0, i32 1
  %102 = load i32, ptr %101, align 4, !tbaa !33
  store i32 %102, ptr %12, align 4, !tbaa !19
  %103 = load ptr, ptr %6, align 8, !tbaa !39
  %104 = load i32, ptr %12, align 4, !tbaa !19
  %105 = sext i32 %104 to i64
  %106 = getelementptr ptr, ptr %103, i64 %105
  %107 = load ptr, ptr %106, align 8, !tbaa !14
  %108 = load ptr, ptr %11, align 8, !tbaa !29
  %109 = getelementptr inbounds nuw %struct._PyCfgInstruction, ptr %108, i32 0, i32 3
  store ptr %107, ptr %109, align 8, !tbaa !34
  call void @llvm.lifetime.end.p0(i64 4, ptr %12) #7
  br label %110

110:                                              ; preds = %99, %94
  call void @llvm.lifetime.end.p0(i64 8, ptr %11) #7
  br label %111

111:                                              ; preds = %110
  %112 = load i32, ptr %10, align 4, !tbaa !19
  %113 = add i32 %112, 1
  store i32 %113, ptr %10, align 4, !tbaa !19
  br label %60, !llvm.loop !48

114:                                              ; preds = %66
  br label %115

115:                                              ; preds = %114
  %116 = load ptr, ptr %9, align 8, !tbaa !14
  %117 = getelementptr inbounds nuw %struct._PyCfgBasicblock, ptr %116, i32 0, i32 4
  %118 = load ptr, ptr %117, align 8, !tbaa !42
  store ptr %118, ptr %9, align 8, !tbaa !14
  br label %55, !llvm.loop !49

119:                                              ; preds = %58
  %120 = load ptr, ptr %6, align 8, !tbaa !39
  call void @PyMem_Free(ptr noundef %120)
  store i32 0, ptr %2, align 4
  store i32 1, ptr %7, align 4
  br label %121

121:                                              ; preds = %119, %23
  call void @llvm.lifetime.end.p0(i64 8, ptr %6) #7
  call void @llvm.lifetime.end.p0(i64 8, ptr %5) #7
  call void @llvm.lifetime.end.p0(i64 4, ptr %4) #7
  %122 = load i32, ptr %2, align 4
  ret i32 %122
}