; Function Attrs: nounwind uwtable
define internal fastcc range(i32 -1, 1) i32 @translate_jump_labels_to_targets(ptr noundef %0) unnamed_addr #0 {
  %.not8.i = icmp eq ptr %0, null
  br i1 %.not8.i, label %get_max_label.exit, label %.lr.ph.i

.lr.ph.i:                                         ; preds = %1, %.lr.ph.i
  %.010.i = phi ptr [ %5, %.lr.ph.i ], [ %0, %1 ]
  %.069.i = phi i32 [ %spec.select.i, %.lr.ph.i ], [ -1, %1 ]
  %2 = getelementptr inbounds nuw i8, ptr %.010.i, i64 8
  %3 = load i32, ptr %2, align 8, !tbaa !33
  %spec.select.i = tail call i32 @llvm.smax.i32(i32 %3, i32 %.069.i)
  %4 = getelementptr inbounds nuw i8, ptr %.010.i, i64 32
  %5 = load ptr, ptr %4, align 8, !tbaa !34
  %.not.i = icmp eq ptr %5, null
  br i1 %.not.i, label %get_max_label.exit.loopexit, label %.lr.ph.i, !llvm.loop !105

get_max_label.exit.loopexit:                      ; preds = %.lr.ph.i
  %6 = add i32 %spec.select.i, 1
  %7 = sext i32 %6 to i64
  %8 = shl nsw i64 %7, 3
  br label %get_max_label.exit

get_max_label.exit:                               ; preds = %get_max_label.exit.loopexit, %1
  %.06.lcssa.i = phi i64 [ 0, %1 ], [ %8, %get_max_label.exit.loopexit ]
  %9 = tail call ptr @PyMem_Malloc(i64 noundef %.06.lcssa.i) #8
  %.not = icmp eq ptr %9, null
  br i1 %.not, label %10, label %12

10:                                               ; preds = %get_max_label.exit
  %11 = tail call ptr @PyErr_NoMemory() #8
  br label %44

12:                                               ; preds = %get_max_label.exit
  tail call void @llvm.memset.p0.i64(ptr nonnull align 8 %9, i8 0, i64 %.06.lcssa.i, i1 false)
  br i1 %.not8.i, label %._crit_edge49, label %.lr.ph

.lr.ph:                                           ; preds = %12, %19
  %.03244 = phi ptr [ %21, %19 ], [ %0, %12 ]
  %13 = getelementptr inbounds nuw i8, ptr %.03244, i64 8
  %14 = load i32, ptr %13, align 8, !tbaa !33
  %15 = icmp sgt i32 %14, -1
  br i1 %15, label %16, label %19

16:                                               ; preds = %.lr.ph
  %17 = zext nneg i32 %14 to i64
  %18 = getelementptr ptr, ptr %9, i64 %17
  store ptr %.03244, ptr %18, align 8, !tbaa !23
  br label %19

19:                                               ; preds = %.lr.ph, %16
  %20 = getelementptr inbounds nuw i8, ptr %.03244, i64 32
  %21 = load ptr, ptr %20, align 8, !tbaa !34
  %.not36 = icmp eq ptr %21, null
  br i1 %.not36, label %.preheader, label %.lr.ph, !llvm.loop !110

.preheader:                                       ; preds = %19, %._crit_edge
  %.03148 = phi ptr [ %28, %._crit_edge ], [ %0, %19 ]
  %22 = getelementptr inbounds nuw i8, ptr %.03148, i64 40
  %23 = load i32, ptr %22, align 8, !tbaa !25
  %24 = icmp sgt i32 %23, 0
  br i1 %24, label %.lr.ph46, label %._crit_edge

.lr.ph46:                                         ; preds = %.preheader
  %25 = getelementptr inbounds nuw i8, ptr %.03148, i64 24
  %26 = load ptr, ptr %25, align 8, !tbaa !20
  %wide.trip.count = zext nneg i32 %23 to i64
  br label %29

._crit_edge49:                                    ; preds = %._crit_edge, %12
  tail call void @PyMem_Free(ptr noundef nonnull %9) #8
  br label %44

._crit_edge:                                      ; preds = %43, %.preheader
  %27 = getelementptr inbounds nuw i8, ptr %.03148, i64 32
  %28 = load ptr, ptr %27, align 8, !tbaa !34
  %.not37 = icmp eq ptr %28, null
  br i1 %.not37, label %._crit_edge49, label %.preheader, !llvm.loop !111

29:                                               ; preds = %.lr.ph46, %43
  %indvars.iv = phi i64 [ 0, %.lr.ph46 ], [ %indvars.iv.next, %43 ]
  %30 = getelementptr %struct._PyCfgInstruction, ptr %26, i64 %indvars.iv
  %31 = load i32, ptr %30, align 8, !tbaa !26
  %32 = sext i32 %31 to i64
  %33 = getelementptr [266 x %struct.opcode_metadata], ptr @_PyOpcode_opcode_metadata, i64 0, i64 %32, i32 2
  %34 = load i16, ptr %33, align 2, !tbaa !29
  %.fr41 = freeze i16 %34
  %35 = and i16 %.fr41, 8
  %.not38 = icmp ne i16 %35, 0
  %.off = add i32 %31, -262
  %switch = icmp ult i32 %.off, 3
  %or.cond = or i1 %switch, %.not38
  br i1 %or.cond, label %36, label %43

36:                                               ; preds = %29
  %37 = getelementptr inbounds nuw i8, ptr %30, i64 4
  %38 = load i32, ptr %37, align 4, !tbaa !35
  %39 = sext i32 %38 to i64
  %40 = getelementptr ptr, ptr %9, i64 %39
  %41 = load ptr, ptr %40, align 8, !tbaa !23
  %42 = getelementptr inbounds nuw i8, ptr %30, i64 24
  store ptr %41, ptr %42, align 8, !tbaa !36
  br label %43

43:                                               ; preds = %29, %36
  %indvars.iv.next = add nuw nsw i64 %indvars.iv, 1
  %exitcond.not = icmp eq i64 %indvars.iv.next, %wide.trip.count
  br i1 %exitcond.not, label %._crit_edge, label %29, !llvm.loop !112

44:                                               ; preds = %._crit_edge49, %10
  %.0 = phi i32 [ 0, %._crit_edge49 ], [ -1, %10 ]
  ret i32 %.0
}